target datalayout = "e-m:e-p270:32:32-p271:32:32-p272:64:64-i64:64-i128:128-f80:128-n8:16:32:64-S128"
target triple = "x86_64-pc-linux-gnu"

%struct.strbuf = type { i64, i64, ptr }
%struct.stat = type { i64, i64, i64, i32, i32, i32, i32, i64, i64, i64, i64, %struct.timespec, %struct.timespec, %struct.timespec, [3 x i64] }
%struct.timespec = type { i64, i64 }

@read_gitfile_gently.realpath = internal global %struct.strbuf { i64 0, i64 0, ptr @strbuf_slopbuf }, align 8
@.str.41 = private unnamed_addr constant [9 x i8] c"gitdir: \00", align 1
@.str.42 = private unnamed_addr constant [9 x i8] c"%.*s%.*s\00", align 1

; Function Attrs: inlinehint nounwind uwtable
define internal i32 @git_has_dos_drive_prefix(ptr noundef %0) #2 {
  %2 = alloca ptr, align 8
  store ptr %0, ptr %2, align 8, !tbaa !4
  ret i32 0
}

; Function Attrs: inlinehint nounwind uwtable
define internal i32 @git_is_dir_sep(i32 noundef %0) #2 {
  %2 = alloca i32, align 4
  store i32 %0, ptr %2, align 4, !tbaa !9
  %3 = load i32, ptr %2, align 4, !tbaa !9
  %4 = icmp eq i32 %3, 47
  %5 = zext i1 %4 to i32
  ret i32 %5
}

; Function Attrs: inlinehint nounwind uwtable
define internal i32 @is_absolute_path(ptr noundef %0) #2 {
  %2 = alloca ptr, align 8
  store ptr %0, ptr %2, align 8, !tbaa !4
  %3 = load ptr, ptr %2, align 8, !tbaa !4
  %4 = getelementptr inbounds i8, ptr %3, i64 0
  %5 = load i8, ptr %4, align 1, !tbaa !13
  %6 = sext i8 %5 to i32
  %7 = call i32 @git_is_dir_sep(i32 noundef %6)
  %8 = icmp ne i32 %7, 0
  br i1 %8, label %13, label %9

9:                                                ; preds = %1
  %10 = load ptr, ptr %2, align 8, !tbaa !4
  %11 = call i32 @git_has_dos_drive_prefix(ptr noundef %10)
  %12 = icmp ne i32 %11, 0
  br label %13

13:                                               ; preds = %9, %1
  %14 = phi i1 [ true, %1 ], [ %12, %9 ]
  %15 = zext i1 %14 to i32
  ret i32 %15
}

; Function Attrs: nounwind uwtable
define dso_local ptr @read_gitfile_gently(ptr noundef %0, ptr noundef %1) #0 {
  %3 = alloca ptr, align 8
  %4 = alloca ptr, align 8
  %5 = alloca i32, align 4
  %6 = alloca i32, align 4
  %7 = alloca ptr, align 8
  %8 = alloca ptr, align 8
  %9 = alloca ptr, align 8
  %10 = alloca %struct.stat, align 8
  %11 = alloca i32, align 4
  %12 = alloca i64, align 8
  %13 = alloca i64, align 8
  store ptr %0, ptr %3, align 8, !tbaa !4
  store ptr %1, ptr %4, align 8, !tbaa !11
  call void @llvm.lifetime.start.p0(i64 4, ptr %5) #13
  store i32 1048576, ptr %5, align 4, !tbaa !9
  call void @llvm.lifetime.start.p0(i64 4, ptr %6) #13
  store i32 0, ptr %6, align 4, !tbaa !9
  call void @llvm.lifetime.start.p0(i64 8, ptr %7) #13
  store ptr null, ptr %7, align 8, !tbaa !4
  call void @llvm.lifetime.start.p0(i64 8, ptr %8) #13
  store ptr null, ptr %8, align 8, !tbaa !4
  call void @llvm.lifetime.start.p0(i64 8, ptr %9) #13
  call void @llvm.lifetime.start.p0(i64 144, ptr %10) #13
  call void @llvm.lifetime.start.p0(i64 4, ptr %11) #13
  call void @llvm.lifetime.start.p0(i64 8, ptr %12) #13
  %14 = load ptr, ptr %3, align 8, !tbaa !4
  %15 = call i32 @stat64(ptr noundef %14, ptr noundef %10) #13
  %16 = icmp ne i32 %15, 0
  br i1 %16, label %17, label %18

17:                                               ; preds = %2
  store i32 1, ptr %6, align 4, !tbaa !9
  br label %122

18:                                               ; preds = %2
  %19 = getelementptr inbounds nuw %struct.stat, ptr %10, i32 0, i32 3
  %20 = load i32, ptr %19, align 8, !tbaa !31
  %21 = and i32 %20, 61440
  %22 = icmp eq i32 %21, 32768
  br i1 %22, label %24, label %23

23:                                               ; preds = %18
  store i32 2, ptr %6, align 4, !tbaa !9
  br label %122

24:                                               ; preds = %18
  %25 = getelementptr inbounds nuw %struct.stat, ptr %10, i32 0, i32 8
  %26 = load i64, ptr %25, align 8, !tbaa !35
  %27 = icmp sgt i64 %26, 1048576
  br i1 %27, label %28, label %29

28:                                               ; preds = %24
  store i32 8, ptr %6, align 4, !tbaa !9
  br label %122

29:                                               ; preds = %24
  %30 = load ptr, ptr %3, align 8, !tbaa !4
  %31 = call i32 (ptr, i32, ...) @open64(ptr noundef %30, i32 noundef 0)
  store i32 %31, ptr %11, align 4, !tbaa !9
  %32 = load i32, ptr %11, align 4, !tbaa !9
  %33 = icmp slt i32 %32, 0
  br i1 %33, label %34, label %35

34:                                               ; preds = %29
  store i32 3, ptr %6, align 4, !tbaa !9
  br label %122

35:                                               ; preds = %29
  %36 = getelementptr inbounds nuw %struct.stat, ptr %10, i32 0, i32 8
  %37 = load i64, ptr %36, align 8, !tbaa !35
  %38 = call ptr @xmallocz(i64 noundef %37)
  store ptr %38, ptr %7, align 8, !tbaa !4
  %39 = load i32, ptr %11, align 4, !tbaa !9
  %40 = load ptr, ptr %7, align 8, !tbaa !4
  %41 = getelementptr inbounds nuw %struct.stat, ptr %10, i32 0, i32 8
  %42 = load i64, ptr %41, align 8, !tbaa !35
  %43 = call i64 @read_in_full(i32 noundef %39, ptr noundef %40, i64 noundef %42)
  store i64 %43, ptr %12, align 8, !tbaa !16
  %44 = load i32, ptr %11, align 4, !tbaa !9
  %45 = call i32 @close(i32 noundef %44)
  %46 = load i64, ptr %12, align 8, !tbaa !16
  %47 = getelementptr inbounds nuw %struct.stat, ptr %10, i32 0, i32 8
  %48 = load i64, ptr %47, align 8, !tbaa !35
  %49 = icmp ne i64 %46, %48
  br i1 %49, label %50, label %51

50:                                               ; preds = %35
  store i32 4, ptr %6, align 4, !tbaa !9
  br label %122

51:                                               ; preds = %35
  %52 = load ptr, ptr %7, align 8, !tbaa !4
  %53 = call i32 @starts_with(ptr noundef %52, ptr noundef @.str.41)
  %54 = icmp ne i32 %53, 0
  br i1 %54, label %56, label %55

55:                                               ; preds = %51
  store i32 5, ptr %6, align 4, !tbaa !9
  br label %122

56:                                               ; preds = %51
  br label %57

57:                                               ; preds = %75, %56
  %58 = load ptr, ptr %7, align 8, !tbaa !4
  %59 = load i64, ptr %12, align 8, !tbaa !16
  %60 = sub nsw i64 %59, 1
  %61 = getelementptr inbounds i8, ptr %58, i64 %60
  %62 = load i8, ptr %61, align 1, !tbaa !13
  %63 = sext i8 %62 to i32
  %64 = icmp eq i32 %63, 10
  br i1 %64, label %73, label %65

65:                                               ; preds = %57
  %66 = load ptr, ptr %7, align 8, !tbaa !4
  %67 = load i64, ptr %12, align 8, !tbaa !16
  %68 = sub nsw i64 %67, 1
  %69 = getelementptr inbounds i8, ptr %66, i64 %68
  %70 = load i8, ptr %69, align 1, !tbaa !13
  %71 = sext i8 %70 to i32
  %72 = icmp eq i32 %71, 13
  br label %73

73:                                               ; preds = %65, %57
  %74 = phi i1 [ true, %57 ], [ %72, %65 ]
  br i1 %74, label %75, label %78

75:                                               ; preds = %73
  %76 = load i64, ptr %12, align 8, !tbaa !16
  %77 = add nsw i64 %76, -1
  store i64 %77, ptr %12, align 8, !tbaa !16
  br label %57, !llvm.loop !36

78:                                               ; preds = %73
  %79 = load i64, ptr %12, align 8, !tbaa !16
  %80 = icmp slt i64 %79, 9
  br i1 %80, label %81, label %82

81:                                               ; preds = %78
  store i32 6, ptr %6, align 4, !tbaa !9
  br label %122

82:                                               ; preds = %78
  %83 = load ptr, ptr %7, align 8, !tbaa !4
  %84 = load i64, ptr %12, align 8, !tbaa !16
  %85 = getelementptr inbounds i8, ptr %83, i64 %84
  store i8 0, ptr %85, align 1, !tbaa !13
  %86 = load ptr, ptr %7, align 8, !tbaa !4
  %87 = getelementptr inbounds i8, ptr %86, i64 8
  store ptr %87, ptr %8, align 8, !tbaa !4
  %88 = load ptr, ptr %8, align 8, !tbaa !4
  %89 = call i32 @is_absolute_path(ptr noundef %88)
  %90 = icmp ne i32 %89, 0
  br i1 %90, label %113, label %91

91:                                               ; preds = %82
  %92 = load ptr, ptr %3, align 8, !tbaa !4
  %93 = call ptr @strrchr(ptr noundef %92, i32 noundef 47) #14
  store ptr %93, ptr %9, align 8, !tbaa !4
  %94 = icmp ne ptr %93, null
  br i1 %94, label %95, label %113

95:                                               ; preds = %91
  call void @llvm.lifetime.start.p0(i64 8, ptr %13) #13
  %96 = load ptr, ptr %9, align 8, !tbaa !4
  %97 = getelementptr inbounds i8, ptr %96, i64 1
  %98 = load ptr, ptr %3, align 8, !tbaa !4
  %99 = ptrtoint ptr %97 to i64
  %100 = ptrtoint ptr %98 to i64
  %101 = sub i64 %99, %100
  store i64 %101, ptr %13, align 8, !tbaa !16
  %102 = load i64, ptr %13, align 8, !tbaa !16
  %103 = trunc i64 %102 to i32
  %104 = load ptr, ptr %3, align 8, !tbaa !4
  %105 = load i64, ptr %12, align 8, !tbaa !16
  %106 = sub nsw i64 %105, 8
  %107 = trunc i64 %106 to i32
  %108 = load ptr, ptr %7, align 8, !tbaa !4
  %109 = getelementptr inbounds i8, ptr %108, i64 8
  %110 = call ptr (ptr, ...) @xstrfmt(ptr noundef @.str.42, i32 noundef %103, ptr noundef %104, i32 noundef %107, ptr noundef %109)
  store ptr %110, ptr %8, align 8, !tbaa !4
  %111 = load ptr, ptr %7, align 8, !tbaa !4
  call void @free(ptr noundef %111) #13
  %112 = load ptr, ptr %8, align 8, !tbaa !4
  store ptr %112, ptr %7, align 8, !tbaa !4
  call void @llvm.lifetime.end.p0(i64 8, ptr %13) #13
  br label %113

113:                                              ; preds = %95, %91, %82
  %114 = load ptr, ptr %8, align 8, !tbaa !4
  %115 = call i32 @is_git_directory(ptr noundef %114)
  %116 = icmp ne i32 %115, 0
  br i1 %116, label %118, label %117

117:                                              ; preds = %113
  store i32 7, ptr %6, align 4, !tbaa !9
  br label %122

118:                                              ; preds = %113
  %119 = load ptr, ptr %8, align 8, !tbaa !4
  %120 = call ptr @strbuf_realpath(ptr noundef @read_gitfile_gently.realpath, ptr noundef %119, i32 noundef 1)
  %121 = load ptr, ptr getelementptr inbounds nuw (%struct.strbuf, ptr @read_gitfile_gently.realpath, i32 0, i32 2), align 8, !tbaa !18
  store ptr %121, ptr %3, align 8, !tbaa !4
  br label %122

122:                                              ; preds = %118, %117, %81, %55, %50, %34, %28, %23, %17
  %123 = load ptr, ptr %4, align 8, !tbaa !11
  %124 = icmp ne ptr %123, null
  br i1 %124, label %125, label %128

125:                                              ; preds = %122
  %126 = load i32, ptr %6, align 4, !tbaa !9
  %127 = load ptr, ptr %4, align 8, !tbaa !11
  store i32 %126, ptr %127, align 4, !tbaa !9
  br label %136

128:                                              ; preds = %122
  %129 = load i32, ptr %6, align 4, !tbaa !9
  %130 = icmp ne i32 %129, 0
  br i1 %130, label %131, label %135

131:                                              ; preds = %128
  %132 = load i32, ptr %6, align 4, !tbaa !9
  %133 = load ptr, ptr %3, align 8, !tbaa !4
  %134 = load ptr, ptr %8, align 8, !tbaa !4
  call void @read_gitfile_error_die(i32 noundef %132, ptr noundef %133, ptr noundef %134)
  br label %135

135:                                              ; preds = %131, %128
  br label %136

136:                                              ; preds = %135, %125
  %137 = load ptr, ptr %7, align 8, !tbaa !4
  call void @free(ptr noundef %137) #13
  %138 = load i32, ptr %6, align 4, !tbaa !9
  %139 = icmp ne i32 %138, 0
  br i1 %139, label %140, label %141

140:                                              ; preds = %136
  br label %143

141:                                              ; preds = %136
  %142 = load ptr, ptr %3, align 8, !tbaa !4
  br label %143

143:                                              ; preds = %141, %140
  %144 = phi ptr [ null, %140 ], [ %142, %141 ]
  call void @llvm.lifetime.end.p0(i64 8, ptr %12) #13
  call void @llvm.lifetime.end.p0(i64 4, ptr %11) #13
  call void @llvm.lifetime.end.p0(i64 144, ptr %10) #13
  call void @llvm.lifetime.end.p0(i64 8, ptr %9) #13
  call void @llvm.lifetime.end.p0(i64 8, ptr %8) #13
  call void @llvm.lifetime.end.p0(i64 8, ptr %7) #13
  call void @llvm.lifetime.end.p0(i64 4, ptr %6) #13
  call void @llvm.lifetime.end.p0(i64 4, ptr %5) #13
  ret ptr %144
}