; Function Attrs: nounwind uwtable
define dso_local ptr @read_gitfile_gently(ptr noundef %0, ptr noundef writeonly %1) local_unnamed_addr #0 {
  %3 = alloca %struct.stat, align 8
  call void @llvm.lifetime.start.p0(i64 144, ptr nonnull %3) #25
  %4 = call i32 @stat64(ptr noundef %0, ptr noundef nonnull %3) #25
  %.not = icmp eq i32 %4, 0
  br i1 %.not, label %5, label %44

5:                                                ; preds = %2
  %6 = getelementptr inbounds nuw i8, ptr %3, i64 24
  %7 = load i32, ptr %6, align 8, !tbaa !23
  %8 = and i32 %7, 61440
  %9 = icmp eq i32 %8, 32768
  br i1 %9, label %10, label %44

10:                                               ; preds = %5
  %11 = getelementptr inbounds nuw i8, ptr %3, i64 48
  %12 = load i64, ptr %11, align 8, !tbaa !27
  %13 = icmp sgt i64 %12, 1048576
  br i1 %13, label %44, label %14

14:                                               ; preds = %10
  %15 = tail call i32 (ptr, i32, ...) @open64(ptr noundef %0, i32 noundef 0) #25
  %16 = icmp slt i32 %15, 0
  br i1 %16, label %44, label %17

17:                                               ; preds = %14
  %18 = tail call ptr @xmallocz(i64 noundef %12) #25
  %19 = tail call i64 @read_in_full(i32 noundef %15, ptr noundef %18, i64 noundef %12) #25
  %20 = tail call i32 @close(i32 noundef %15) #25
  %.not48 = icmp eq i64 %19, %12
  br i1 %.not48, label %21, label %44

21:                                               ; preds = %17
  %22 = tail call i32 @starts_with(ptr noundef %18, ptr noundef nonnull @.str.41) #25
  %.not49 = icmp eq i32 %22, 0
  br i1 %.not49, label %44, label %.preheader

.preheader:                                       ; preds = %21, %.critedge
  %.038 = phi i64 [ %26, %.critedge ], [ %12, %21 ]
  %23 = getelementptr i8, ptr %18, i64 %.038
  %24 = getelementptr i8, ptr %23, i64 -1
  %25 = load i8, ptr %24, align 1, !tbaa !4
  switch i8 %25, label %27 [
    i8 10, label %.critedge
    i8 13, label %.critedge
  ]

.critedge:                                        ; preds = %.preheader, %.preheader
  %26 = add nsw i64 %.038, -1
  br label %.preheader, !llvm.loop !28

27:                                               ; preds = %.preheader
  %28 = icmp slt i64 %.038, 9
  br i1 %28, label %44, label %29

29:                                               ; preds = %27
  store i8 0, ptr %23, align 1, !tbaa !4
  %30 = getelementptr inbounds nuw i8, ptr %18, i64 8
  %.val = load i8, ptr %30, align 1, !tbaa !4
  %.not94 = icmp eq i8 %.val, 47
  br i1 %.not94, label %42, label %31

31:                                               ; preds = %29
  %32 = tail call ptr @strrchr(ptr noundef nonnull dereferenceable(1) %0, i32 noundef 47) #24
  %.not51 = icmp eq ptr %32, null
  br i1 %.not51, label %42, label %33

33:                                               ; preds = %31
  %34 = getelementptr inbounds nuw i8, ptr %32, i64 1
  %35 = ptrtoint ptr %34 to i64
  %36 = ptrtoint ptr %0 to i64
  %37 = sub i64 %35, %36
  %38 = trunc i64 %37 to i32
  %39 = trunc i64 %.038 to i32
  %40 = add i32 %39, -8
  %41 = tail call ptr (ptr, ...) @xstrfmt(ptr noundef nonnull @.str.42, i32 noundef %38, ptr noundef nonnull %0, i32 noundef %40, ptr noundef nonnull %30) #25
  tail call void @free(ptr noundef nonnull %18) #25
  br label %42

42:                                               ; preds = %33, %31, %29
  %.142 = phi ptr [ %30, %29 ], [ %41, %33 ], [ %30, %31 ]
  %.1 = phi ptr [ %18, %29 ], [ %41, %33 ], [ %18, %31 ]
  %43 = tail call i32 @is_git_directory(ptr noundef %.142)
  %.not52 = icmp eq i32 %43, 0
  br i1 %.not52, label %44, label %.thread

44:                                               ; preds = %42, %27, %21, %17, %14, %10, %5, %2
  %.041 = phi ptr [ null, %2 ], [ null, %5 ], [ null, %10 ], [ null, %14 ], [ null, %17 ], [ null, %21 ], [ null, %27 ], [ %.142, %42 ]
  %.040 = phi ptr [ null, %2 ], [ null, %5 ], [ null, %10 ], [ null, %14 ], [ %18, %17 ], [ %18, %21 ], [ %18, %27 ], [ %.1, %42 ]
  %.039 = phi i32 [ 1, %2 ], [ 2, %5 ], [ 8, %10 ], [ 3, %14 ], [ 4, %17 ], [ 5, %21 ], [ 6, %27 ], [ 7, %42 ]
  %.not53 = icmp eq ptr %1, null
  br i1 %.not53, label %.thread85, label %47

.thread:                                          ; preds = %42
  %45 = tail call ptr @strbuf_realpath(ptr noundef nonnull @read_gitfile_gently.realpath, ptr noundef %.142, i32 noundef 1) #25
  %46 = load ptr, ptr getelementptr inbounds nuw (i8, ptr @read_gitfile_gently.realpath, i64 16), align 8, !tbaa !14
  %.not5361 = icmp eq ptr %1, null
  br i1 %.not5361, label %.thread80, label %.thread89

.thread89:                                        ; preds = %.thread
  store i32 0, ptr %1, align 4, !tbaa !7
  br label %.thread80

.thread85:                                        ; preds = %44
  tail call void @read_gitfile_error_die(i32 noundef %.039, ptr noundef %0, ptr noundef %.041)
  br label %.thread80

47:                                               ; preds = %44
  store i32 %.039, ptr %1, align 4, !tbaa !7
  br label %.thread80

.thread80:                                        ; preds = %.thread, %.thread89, %47, %.thread85
  %.1.sink = phi ptr [ %.1, %.thread89 ], [ %.040, %47 ], [ %.040, %.thread85 ], [ %.1, %.thread ]
  %48 = phi ptr [ %46, %.thread89 ], [ null, %47 ], [ null, %.thread85 ], [ %46, %.thread ]
  tail call void @free(ptr noundef %.1.sink) #25
  call void @llvm.lifetime.end.p0(i64 144, ptr nonnull %3) #25
  ret ptr %48
}